target datalayout = "e-m:e-p270:32:32-p271:32:32-p272:64:64-i64:64-i128:128-f80:128-n8:16:32:64-S128"
target triple = "x86_64-pc-linux-gnu"

%struct.DecodedFrames = type { ptr, i64, i64 }
%struct.FrameThreadContext = type { ptr, ptr, i32, %union.pthread_mutex_t, %union.pthread_mutex_t, %union.pthread_mutex_t, %union.pthread_cond_t, i32, %struct.DecodedFrames, i32, ptr, i32, i32, ptr, ptr, ptr }
%union.pthread_mutex_t = type { %struct.__pthread_mutex_s }
%struct.__pthread_mutex_s = type { i32, i32, i32, i32, i32, i16, i16, %struct.__pthread_internal_list }
%struct.__pthread_internal_list = type { ptr, ptr }
%union.pthread_cond_t = type { %struct.__pthread_cond_s }
%struct.__pthread_cond_s = type { %union.__atomic_wide_counter, %union.__atomic_wide_counter, [2 x i32], [2 x i32], i32, i32, [2 x i32] }
%union.__atomic_wide_counter = type { i64 }
%struct.PerThreadContext = type { ptr, i64, i32, i32, %union.pthread_cond_t, %union.pthread_cond_t, %union.pthread_cond_t, %union.pthread_mutex_t, %union.pthread_mutex_t, ptr, ptr, %struct.DecodedFrames, i32, i32, i32, i32, i32, i32, i32, i32, i32 }

; Function Attrs: nounwind uwtable
define internal void @async_lock(ptr noundef %0) #0 {
  %2 = alloca ptr, align 8
  store ptr %0, ptr %2, align 8, !tbaa !37
  %3 = load ptr, ptr %2, align 8, !tbaa !37
  %4 = getelementptr inbounds nuw %struct.FrameThreadContext, ptr %3, i32 0, i32 5
  %5 = call i32 @pthread_mutex_lock(ptr noundef %4) #9
  br label %6

6:                                                ; preds = %11, %1
  %7 = load ptr, ptr %2, align 8, !tbaa !37
  %8 = getelementptr inbounds nuw %struct.FrameThreadContext, ptr %7, i32 0, i32 7
  %9 = load i32, ptr %8, align 8, !tbaa !63
  %10 = icmp ne i32 %9, 0
  br i1 %10, label %11, label %17

11:                                               ; preds = %6
  %12 = load ptr, ptr %2, align 8, !tbaa !37
  %13 = getelementptr inbounds nuw %struct.FrameThreadContext, ptr %12, i32 0, i32 6
  %14 = load ptr, ptr %2, align 8, !tbaa !37
  %15 = getelementptr inbounds nuw %struct.FrameThreadContext, ptr %14, i32 0, i32 5
  %16 = call i32 @pthread_cond_wait(ptr noundef %13, ptr noundef %15)
  br label %6, !llvm.loop !133

17:                                               ; preds = %6
  %18 = load ptr, ptr %2, align 8, !tbaa !37
  %19 = getelementptr inbounds nuw %struct.FrameThreadContext, ptr %18, i32 0, i32 7
  store i32 1, ptr %19, align 8, !tbaa !63
  %20 = load ptr, ptr %2, align 8, !tbaa !37
  %21 = getelementptr inbounds nuw %struct.FrameThreadContext, ptr %20, i32 0, i32 5
  %22 = call i32 @pthread_mutex_unlock(ptr noundef %21) #9
  ret void
}

; Function Attrs: cold nounwind optsize uwtable
define internal void @park_frame_worker_threads(ptr noundef %0, i32 noundef %1) #7 {
  %3 = alloca ptr, align 8
  %4 = alloca i32, align 4
  %5 = alloca i32, align 4
  %6 = alloca ptr, align 8
  %7 = alloca i32, align 4
  %8 = alloca i32, align 4
  store ptr %0, ptr %3, align 8, !tbaa !37
  store i32 %1, ptr %4, align 4, !tbaa !39
  call void @llvm.lifetime.start.p0(i64 4, ptr %5) #9
  %9 = load ptr, ptr %3, align 8, !tbaa !37
  call void @async_unlock(ptr noundef %9)
  store i32 0, ptr %5, align 4, !tbaa !39
  br label %10

10:                                               ; preds = %47, %2
  %11 = load i32, ptr %5, align 4, !tbaa !39
  %12 = load i32, ptr %4, align 4, !tbaa !39
  %13 = icmp slt i32 %11, %12
  br i1 %13, label %14, label %50

14:                                               ; preds = %10
  call void @llvm.lifetime.start.p0(i64 8, ptr %6) #9
  %15 = load ptr, ptr %3, align 8, !tbaa !37
  %16 = getelementptr inbounds nuw %struct.FrameThreadContext, ptr %15, i32 0, i32 0
  %17 = load ptr, ptr %16, align 8, !tbaa !47
  %18 = load i32, ptr %5, align 4, !tbaa !39
  %19 = sext i32 %18 to i64
  %20 = getelementptr inbounds %struct.PerThreadContext, ptr %17, i64 %19
  store ptr %20, ptr %6, align 8, !tbaa !53
  %21 = load ptr, ptr %6, align 8, !tbaa !53
  %22 = getelementptr inbounds nuw %struct.PerThreadContext, ptr %21, i32 0, i32 13
  %23 = load atomic i32, ptr %22 seq_cst, align 4
  store i32 %23, ptr %7, align 4
  %24 = load i32, ptr %7, align 4, !tbaa !39
  %25 = icmp ne i32 %24, 0
  br i1 %25, label %26, label %46

26:                                               ; preds = %14
  %27 = load ptr, ptr %6, align 8, !tbaa !53
  %28 = getelementptr inbounds nuw %struct.PerThreadContext, ptr %27, i32 0, i32 8
  %29 = call i32 @pthread_mutex_lock(ptr noundef %28) #9
  br label %30

30:                                               ; preds = %36, %26
  %31 = load ptr, ptr %6, align 8, !tbaa !53
  %32 = getelementptr inbounds nuw %struct.PerThreadContext, ptr %31, i32 0, i32 13
  %33 = load atomic i32, ptr %32 seq_cst, align 4
  store i32 %33, ptr %8, align 4
  %34 = load i32, ptr %8, align 4, !tbaa !39
  %35 = icmp ne i32 %34, 0
  br i1 %35, label %36, label %42

36:                                               ; preds = %30
  %37 = load ptr, ptr %6, align 8, !tbaa !53
  %38 = getelementptr inbounds nuw %struct.PerThreadContext, ptr %37, i32 0, i32 6
  %39 = load ptr, ptr %6, align 8, !tbaa !53
  %40 = getelementptr inbounds nuw %struct.PerThreadContext, ptr %39, i32 0, i32 8
  %41 = call i32 @pthread_cond_wait(ptr noundef %38, ptr noundef %40)
  br label %30, !llvm.loop !151

42:                                               ; preds = %30
  %43 = load ptr, ptr %6, align 8, !tbaa !53
  %44 = getelementptr inbounds nuw %struct.PerThreadContext, ptr %43, i32 0, i32 8
  %45 = call i32 @pthread_mutex_unlock(ptr noundef %44) #9
  br label %46

46:                                               ; preds = %42, %14
  call void @llvm.lifetime.end.p0(i64 8, ptr %6) #9
  br label %47

47:                                               ; preds = %46
  %48 = load i32, ptr %5, align 4, !tbaa !39
  %49 = add nsw i32 %48, 1
  store i32 %49, ptr %5, align 4, !tbaa !39
  br label %10, !llvm.loop !152

50:                                               ; preds = %10
  %51 = load ptr, ptr %3, align 8, !tbaa !37
  call void @async_lock(ptr noundef %51)
  call void @llvm.lifetime.end.p0(i64 4, ptr %5) #9
  ret void
}