; Function Attrs: cold nounwind optsize uwtable
define internal fastcc void @park_frame_worker_threads(ptr noundef %0, i32 noundef %1) unnamed_addr #6 {
  tail call fastcc void @async_unlock(ptr noundef %0)
  %3 = icmp sgt i32 %1, 0
  br i1 %3, label %.lr.ph18.preheader, label %._crit_edge19

.lr.ph18.preheader:                               ; preds = %2
  %wide.trip.count = zext nneg i32 %1 to i64
  br label %.lr.ph18

.lr.ph18:                                         ; preds = %.lr.ph18.preheader, %17
  %indvars.iv = phi i64 [ 0, %.lr.ph18.preheader ], [ %indvars.iv.next, %17 ]
  %4 = load ptr, ptr %0, align 8, !tbaa !42
  %5 = getelementptr inbounds nuw %struct.PerThreadContext, ptr %4, i64 %indvars.iv
  %6 = getelementptr inbounds nuw i8, ptr %5, i64 292
  %7 = load atomic i32, ptr %6 seq_cst, align 4
  %.not = icmp eq i32 %7, 0
  br i1 %.not, label %17, label %8

8:                                                ; preds = %.lr.ph18
  %9 = getelementptr inbounds nuw i8, ptr %5, i64 208
  %10 = tail call i32 @pthread_mutex_lock(ptr noundef nonnull %9) #11
  %11 = load atomic i32, ptr %6 seq_cst, align 4
  %.not1415 = icmp eq i32 %11, 0
  br i1 %.not1415, label %._crit_edge, label %.lr.ph

.lr.ph:                                           ; preds = %8
  %12 = getelementptr inbounds nuw i8, ptr %5, i64 120
  br label %13

13:                                               ; preds = %.lr.ph, %13
  %14 = tail call i32 @pthread_cond_wait(ptr noundef nonnull %12, ptr noundef nonnull %9) #11
  %15 = load atomic i32, ptr %6 seq_cst, align 4
  %.not14 = icmp eq i32 %15, 0
  br i1 %.not14, label %._crit_edge, label %13, !llvm.loop !147

._crit_edge:                                      ; preds = %13, %8
  %16 = tail call i32 @pthread_mutex_unlock(ptr noundef nonnull %9) #11
  br label %17

17:                                               ; preds = %._crit_edge, %.lr.ph18
  %indvars.iv.next = add nuw nsw i64 %indvars.iv, 1
  %exitcond.not = icmp eq i64 %indvars.iv.next, %wide.trip.count
  br i1 %exitcond.not, label %._crit_edge19, label %.lr.ph18, !llvm.loop !148

._crit_edge19:                                    ; preds = %17, %2
  %18 = getelementptr inbounds nuw i8, ptr %0, i64 104
  %19 = tail call i32 @pthread_mutex_lock(ptr noundef nonnull %18) #11
  %20 = getelementptr inbounds nuw i8, ptr %0, i64 192
  %21 = load i32, ptr %20, align 8, !tbaa !34
  %.not6.i = icmp eq i32 %21, 0
  br i1 %.not6.i, label %async_lock.exit, label %.lr.ph.i

.lr.ph.i:                                         ; preds = %._crit_edge19
  %22 = getelementptr inbounds nuw i8, ptr %0, i64 144
  br label %23

23:                                               ; preds = %23, %.lr.ph.i
  %24 = tail call i32 @pthread_cond_wait(ptr noundef nonnull %22, ptr noundef nonnull %18) #11
  %25 = load i32, ptr %20, align 8, !tbaa !34
  %.not.i = icmp eq i32 %25, 0
  br i1 %.not.i, label %async_lock.exit, label %23, !llvm.loop !95

async_lock.exit:                                  ; preds = %23, %._crit_edge19
  store i32 1, ptr %20, align 8, !tbaa !34
  %26 = tail call i32 @pthread_mutex_unlock(ptr noundef nonnull %18) #11
  ret void
}